target datalayout = "e-m:e-p270:32:32-p271:32:32-p272:64:64-i64:64-i128:128-f80:128-n8:16:32:64-S128"
target triple = "x86_64-pc-linux-gnu"

%struct.git_hash_algo = type { ptr, i32, i64, i64, i64, ptr, ptr, ptr, ptr, ptr, ptr, ptr, ptr, ptr }
%struct.multi_pack_index = type { ptr, ptr, i64, ptr, ptr, i64, i32, i8, i8, i8, i32, i32, i32, i32, i32, ptr, i64, ptr, i64, ptr, ptr, ptr, ptr, i64, ptr, i64, ptr, i32, i32, ptr, ptr, ptr, [0 x i8] }
%struct.repository = type { ptr, ptr, ptr, ptr, ptr, %struct.strmap, %struct.strmap, %struct.repo_path_cache, ptr, ptr, ptr, ptr, %struct.repo_settings, ptr, ptr, ptr, ptr, ptr, ptr, i32, i32, i32, ptr, ptr, i32, i32, i8 }
%struct.strmap = type { %struct.hashmap, ptr, i8 }
%struct.hashmap = type { ptr, ptr, ptr, i32, i32, i32, i32, i8 }
%struct.repo_path_cache = type { ptr, ptr, ptr, ptr, ptr, ptr, ptr }
%struct.repo_settings = type { i32, i32, i32, i32, i32, i32, i32, i32, i32, i32, i32, i32, ptr, i32, i32, i32, i32, i32, i32, i32, i64, i64, i64 }
%struct.object_id = type { [32 x i8], i32 }

; Function Attrs: nounwind uwtable
define dso_local i32 @bsearch_one_midx(ptr noundef %0, ptr noundef %1, ptr noundef %2) #0 {
  %4 = alloca ptr, align 8
  %5 = alloca ptr, align 8
  %6 = alloca ptr, align 8
  %7 = alloca i32, align 4
  store ptr %0, ptr %4, align 8, !tbaa !81
  store ptr %1, ptr %5, align 8, !tbaa !4
  store ptr %2, ptr %6, align 8, !tbaa !73
  call void @llvm.lifetime.start.p0(i64 4, ptr %7) #13
  %8 = load ptr, ptr %4, align 8, !tbaa !81
  %9 = getelementptr inbounds nuw %struct.object_id, ptr %8, i32 0, i32 0
  %10 = getelementptr inbounds [32 x i8], ptr %9, i64 0, i64 0
  %11 = load ptr, ptr %5, align 8, !tbaa !4
  %12 = getelementptr inbounds nuw %struct.multi_pack_index, ptr %11, i32 0, i32 19
  %13 = load ptr, ptr %12, align 8, !tbaa !73
  %14 = load ptr, ptr %5, align 8, !tbaa !4
  %15 = getelementptr inbounds nuw %struct.multi_pack_index, ptr %14, i32 0, i32 20
  %16 = load ptr, ptr %15, align 8, !tbaa !9
  %17 = load ptr, ptr %5, align 8, !tbaa !4
  %18 = getelementptr inbounds nuw %struct.multi_pack_index, ptr %17, i32 0, i32 31
  %19 = load ptr, ptr %18, align 8, !tbaa !13
  %20 = getelementptr inbounds nuw %struct.repository, ptr %19, i32 0, i32 17
  %21 = load ptr, ptr %20, align 8, !tbaa !15
  %22 = getelementptr inbounds nuw %struct.git_hash_algo, ptr %21, i32 0, i32 2
  %23 = load i64, ptr %22, align 8, !tbaa !34
  %24 = load ptr, ptr %6, align 8, !tbaa !73
  %25 = call i32 @bsearch_hash(ptr noundef %10, ptr noundef %13, ptr noundef %16, i64 noundef %23, ptr noundef %24)
  store i32 %25, ptr %7, align 4, !tbaa !40
  %26 = load ptr, ptr %6, align 8, !tbaa !73
  %27 = icmp ne ptr %26, null
  br i1 %27, label %28, label %35

28:                                               ; preds = %3
  %29 = load ptr, ptr %5, align 8, !tbaa !4
  %30 = getelementptr inbounds nuw %struct.multi_pack_index, ptr %29, i32 0, i32 27
  %31 = load i32, ptr %30, align 8, !tbaa !40
  %32 = load ptr, ptr %6, align 8, !tbaa !73
  %33 = load i32, ptr %32, align 4, !tbaa !40
  %34 = add i32 %33, %31
  store i32 %34, ptr %32, align 4, !tbaa !40
  br label %35

35:                                               ; preds = %28, %3
  %36 = load i32, ptr %7, align 4, !tbaa !40
  call void @llvm.lifetime.end.p0(i64 4, ptr %7) #13
  ret i32 %36
}

; Function Attrs: nounwind uwtable
define dso_local i32 @bsearch_midx(ptr noundef %0, ptr noundef %1, ptr noundef %2) #0 {
  %4 = alloca i32, align 4
  %5 = alloca ptr, align 8
  %6 = alloca ptr, align 8
  %7 = alloca ptr, align 8
  store ptr %0, ptr %5, align 8, !tbaa !81
  store ptr %1, ptr %6, align 8, !tbaa !4
  store ptr %2, ptr %7, align 8, !tbaa !73
  br label %8

8:                                                ; preds = %19, %3
  %9 = load ptr, ptr %6, align 8, !tbaa !4
  %10 = icmp ne ptr %9, null
  br i1 %10, label %11, label %23

11:                                               ; preds = %8
  %12 = load ptr, ptr %5, align 8, !tbaa !81
  %13 = load ptr, ptr %6, align 8, !tbaa !4
  %14 = load ptr, ptr %7, align 8, !tbaa !73
  %15 = call i32 @bsearch_one_midx(ptr noundef %12, ptr noundef %13, ptr noundef %14)
  %16 = icmp ne i32 %15, 0
  br i1 %16, label %17, label %18

17:                                               ; preds = %11
  store i32 1, ptr %4, align 4
  br label %24

18:                                               ; preds = %11
  br label %19

19:                                               ; preds = %18
  %20 = load ptr, ptr %6, align 8, !tbaa !4
  %21 = getelementptr inbounds nuw %struct.multi_pack_index, ptr %20, i32 0, i32 26
  %22 = load ptr, ptr %21, align 8, !tbaa !4
  store ptr %22, ptr %6, align 8, !tbaa !4
  br label %8, !llvm.loop !82

23:                                               ; preds = %8
  store i32 0, ptr %4, align 4
  br label %24

24:                                               ; preds = %23, %17
  %25 = load i32, ptr %4, align 4
  ret i32 %25
}

; Function Attrs: nounwind uwtable
define dso_local i32 @midx_has_oid(ptr noundef %0, ptr noundef %1) #0 {
  %3 = alloca ptr, align 8
  %4 = alloca ptr, align 8
  store ptr %0, ptr %3, align 8, !tbaa !4
  store ptr %1, ptr %4, align 8, !tbaa !81
  %5 = load ptr, ptr %4, align 8, !tbaa !81
  %6 = load ptr, ptr %3, align 8, !tbaa !4
  %7 = call i32 @bsearch_midx(ptr noundef %5, ptr noundef %6, ptr noundef null)
  ret i32 %7
}