; Function Attrs: nounwind uwtable
define dso_local range(i32 0, 2) i32 @midx_has_oid(ptr noundef readonly %0, ptr noundef %1) local_unnamed_addr #1 {
  %.not7.i = icmp eq ptr %0, null
  br i1 %.not7.i, label %bsearch_midx.exit, label %bsearch_one_midx.exit.us.i

bsearch_one_midx.exit.us.i:                       ; preds = %2, %14
  %.058.us.i = phi ptr [ %16, %14 ], [ %0, %2 ]
  %3 = getelementptr inbounds nuw i8, ptr %.058.us.i, i64 112
  %4 = load ptr, ptr %3, align 8, !tbaa !67
  %5 = getelementptr inbounds nuw i8, ptr %.058.us.i, i64 120
  %6 = load ptr, ptr %5, align 8, !tbaa !4
  %7 = getelementptr inbounds nuw i8, ptr %.058.us.i, i64 200
  %8 = load ptr, ptr %7, align 8, !tbaa !11
  %9 = getelementptr inbounds nuw i8, ptr %8, i64 400
  %10 = load ptr, ptr %9, align 8, !tbaa !13
  %11 = getelementptr inbounds nuw i8, ptr %10, i64 16
  %12 = load i64, ptr %11, align 8, !tbaa !32
  %13 = tail call i32 @bsearch_hash(ptr noundef %1, ptr noundef %4, ptr noundef %6, i64 noundef %12, ptr noundef null) #22
  %.not6.us.i = icmp eq i32 %13, 0
  br i1 %.not6.us.i, label %14, label %bsearch_midx.exit

14:                                               ; preds = %bsearch_one_midx.exit.us.i
  %15 = getelementptr inbounds nuw i8, ptr %.058.us.i, i64 168
  %16 = load ptr, ptr %15, align 8, !tbaa !44
  %.not.us.i = icmp eq ptr %16, null
  br i1 %.not.us.i, label %bsearch_midx.exit, label %bsearch_one_midx.exit.us.i, !llvm.loop !75

bsearch_midx.exit:                                ; preds = %bsearch_one_midx.exit.us.i, %14, %2
  %.0.i = phi i32 [ 0, %2 ], [ 1, %bsearch_one_midx.exit.us.i ], [ 0, %14 ]
  ret i32 %.0.i
}